(dp0
S'worldrecord'
p1
I1
sS'LIFE'
p2
I1
sS'hats'
p3
I1
sS'DISCRIMINATORY'
p4
I1
sS'implants'
p5
I1
sS'focus'
p6
I1
sS'Privacy'
p7
I1
sS'protest'
p8
I2
sS'medalist'
p9
I1
sS'hating'
p10
I1
sS'Department'
p11
I2
sS'issues'
p12
I1
sS'shipwrecks'
p13
I1
sS'Foundation'
p14
I2
sS'Shillue'
p15
I1
sS'Business'
p16
I3
sS'mosque'
p17
I1
sS'FIGHTING'
p18
I1
sS'Rangel'
p19
I1
sS'Kellogg'
p20
I1
sS'Chefs\xe2\x80\x99'
p21
I1
sS'terror'
p22
I1
sS'breach'
p23
I1
sS'Nov'
p24
I4
sS'Now'
p25
I3
sS'sent'
p26
I1
sS'Feed'
p27
I2
sS'choice'
p28
I1
sS'Tech'
p29
I2
sS'practicing'
p30
I1
sS'Where'
p31
I1
sS'Email'
p32
I1
sS'school'
p33
I2
sS'Sensitivity'
p34
I2
sS'posts'
p35
I2
sS'accidentally'
p36
I2
sS'LAB'
p37
I1
sS'deals'
p38
I2
sS'Nasdaq'
p39
I1
sS'race'
p40
I1
sS'Patriots'
p41
I1
sS'recall'
p42
I1
sS'Go'
p43
I3
sS'Breakfast'
p44
I1
sS'astronaut'
p45
I1
sS'Into'
p46
I1
sS'force'
p47
I1
sS'warns'
p48
I2
sS'Actually'
p49
I1
sS'talks'
p50
I1
sS'State'
p51
I1
sS'video'
p52
I1
sS'run'
p53
I1
sS'GUY'
p54
I1
sS'Sections'
p55
I1
sS'Red'
p56
I1
sS'sue'
p57
I2
sS'redistributed'
p58
I1
sS'Merkel'
p59
I1
sS'10G'
p60
I1
sS'shares'
p61
I1
sS'Ford'
p62
I1
sS'Tucker'
p63
I2
sS'300'
p64
I1
sS'Cultural'
p65
I2
sS'Govt'
p66
I1
sS'64176'
p67
I1
sS'America'
p68
I1
sS'Happening'
p69
I1
sS'reporter'
p70
I1
sS'Freedom'
p71
I1
sS'punch'
p72
I1
sS'Contact'
p73
I1
sS'Us'
p74
I2
sS'Faces'
p75
I1
sS'100'
p76
I1
sS'appears'
p77
I2
sS'change'
p78
I4
sS'extreme'
p79
I1
sS'buck'
p80
I1
sS'battling'
p81
I1
sS'settles'
p82
I1
sS'pics'
p83
I1
sS'published'
p84
I1
sS'Dear'
p85
I1
sS'military'
p86
I1
sS'Inc'
p87
I1
sS'Technology'
p88
I2
sS'Rivera'
p89
I1
sS'appropriately'
p90
I1
sS'\xe2\x80\x98Sexiest'
p91
I1
sS'Legends'
p92
I1
sS'family'
p93
I1
sS'turkey'
p94
I1
sS'Justice'
p95
I2
sS'Watch'
p96
I3
sS'Top'
p97
I1
sS'Relations'
p98
I1
sS'TUCKER'
p99
I1
sS'Slow'
p100
I1
sS'Health'
p101
I4
sS'Slideshows'
p102
I1
sS'toys'
p103
I2
sS'market'
p104
I1
sS'hotels'
p105
I1
sS'eye'
p106
I1
sS'prove'
p107
I1
sS'sake'
p108
I2
sS'illegal'
p109
I2
sS'resigns'
p110
I1
sS'lsquovanishrsquo'
p111
I1
sS'Playing'
p112
I1
sS'Russian'
p113
I1
sS'Bennetts'
p114
I1
sS'fly'
p115
I1
sS'Americas'
p116
I2
sS'Editorial'
p117
I1
sS'Trains'
p118
I1
sS'Latest'
p119
I2
sS'town'
p120
I1
sS'Reports'
p121
I1
sS'join'
p122
I2
sS'rights'
p123
I1
sS'German'
p124
I1
sS'091607'
p125
I1
sS'Jens'
p126
I1
sS'Tonight'
p127
I1
sS'Lies'
p128
I1
sS'FAQ'
p129
I1
sS'Video'
p130
I3
sS'SC'
p131
I1
sS'experts'
p132
I1
sS'drops'
p133
I1
sS'grenade'
p134
I2
sS'Nicole'
p135
I1
sS'CHARITY'
p136
I1
sS'reserved'
p137
I1
sS'challenging'
p138
I1
sS'Media'
p139
I1
sS'newsletters'
p140
I1
sS'ZR2'
p141
I1
sS'Policy'
p142
I2
sS'counseling'
p143
I1
sS'Australian'
p144
I1
sS'Calif'
p145
I1
sS'rape'
p146
I1
sS'absolute'
p147
I2
sS'HIS'
p148
I1
sS'court'
p149
I1
sS'Deeper'
p150
I1
sS'travel'
p151
I3
sS'Drink'
p152
I2
sS'1'
p153
I1
sS'carrier'
p154
I2
sS'Jack'
p155
I2
sS'speeding'
p156
I1
sS'Americans'
p157
I1
sS'speaks'
p158
I1
sS'Friends'
p159
I3
sS'Why'
p160
I2
sS'A'
p161
I3
sS'Five'
p162
I1
sS'nontypical'
p163
I1
sS'iPhones'
p164
I1
sS'Ryan'
p165
I1
sS'Apps'
p166
I1
sS'Wouldbe'
p167
I1
sS'Yale'
p168
I1
sS'Wild'
p169
I1
sS'Terms'
p170
I1
sS'data'
p171
I2
sS'View'
p172
I5
sS'All'
p173
I2
sS'Outdoor'
p174
I1
sS'Apple'
p175
I1
sS'wins'
p176
I1
sS'Romney'
p177
I2
sS'Rosie'
p178
I1
sS'Tennessee'
p179
I2
sS'Radio'
p180
I3
sS'knits'
p181
I1
sS'File'
p182
I1
sS'fan'
p183
I2
sS'addiction'
p184
I1
sS'Journal'
p185
I1
sS'RSS'
p186
I1
sS'What'
p187
I1
sS'breaking'
p188
I1
sS'Eye'
p189
I1
sS'seeing'
p190
I1
sS'developed'
p191
I2
sS'Breaking'
p192
I1
sS'Smith'
p193
I1
sS'Use'
p194
I1
sS'trade'
p195
I1
sS'Airbnb'
p196
I1
sS'Scholarships'
p197
I1
sS'nbsp'
p198
I18
sS'Around'
p199
I1
sS'blocked'
p200
I1
sS'Think'
p201
I1
sS'Full'
p202
I1
sS'police'
p203
I3
sS'23'
p204
I4
sS'chosen'
p205
I1
sS'fined'
p206
I1
sS'platform'
p207
I2
sS'annual'
p208
I1
sS'Judge'
p209
I1
sS'World'
p210
I3
sS'2016'
p211
I4
sS'fines'
p212
I1
sS'crash'
p213
I1
sS'rsaquo'
p214
I18
sS'Mobile'
p215
I1
sS'material'
p216
I1
sS'Michael'
p217
I3
sS'Shows'
p218
I1
sS'Youth'
p219
I2
sS'WAITING'
p220
I1
sS'FOX'
p221
I1
sS'Can'
p222
I2
sS'TPP'
p223
I1
sS'front'
p224
I1
sS'day'
p225
I1
sS'rhetoric'
p226
I1
sS'Weekend'
p227
I1
sS'Lakosky'
p228
I1
sS'stopped'
p229
I1
sS'victory'
p230
I1
sS'found'
p231
I1
sS'Potential'
p232
I1
sS'Veronicas'
p233
I1
sS'Stars'
p234
I2
sS'ROOTING'
p235
I1
sS'list'
p236
I1
sS'cultivated'
p237
I1
sS'Science'
p238
I4
sS'Sports'
p239
I1
sS'HIRING'
p240
I1
sS'Live'
p241
I1
sS'Peoples'
p242
I1
sS'Riding'
p243
I1
sS'avoided'
p244
I1
sS'More'
p245
I1
sS'Plunge'
p246
I1
sS'Goodwin'
p247
I2
sS'plan'
p248
I1
sS'CEO'
p249
I2
sS'Michigan'
p250
I1
sS'reboot'
p251
I1
sS'I'
p252
I3
sS'Defense'
p253
I1
sS'China'
p254
I2
sS'Breast'
p255
I1
sS'Report'
p256
I2
sS'Town'
p257
I2
sS'This'
p258
I1
sS'University'
p259
I1
sS'free'
p260
I1
sS'20'
p261
I2
sS'Planet'
p262
I1
sS'ban'
p263
I1
sS'Planes'
p264
I3
sS'gaffe'
p265
I1
sS'Opinion'
p266
I4
sS'Podcasts'
p267
I1
sS'training'
p268
I1
sS'Conversations'
p269
I1
sS'Videos'
p270
I1
sS'People'
p271
I1
sS'Nature'
p272
I1
sS'days'
p273
I2
sS'Continue'
p274
I10
sS'view'
p275
I1
sS'Presidentelect'
p276
I2
sS'Bridges'
p277
I2
sS'Lama'
p278
I1
sS'Personalities'
p279
I1
sS'Newsroom'
p280
I2
sS'Dalai'
p281
I1
sS'Forecast'
p282
I1
sS'Kelly'
p283
I1
sS'Going'
p284
I1
sS'Black'
p285
I3
sS'suspended'
p286
I2
sS'Careers'
p287
I1
sS'size'
p288
I1
sS'Separated'
p289
I1
sS'city'
p290
I1
sS'toy'
p291
I1
sS'North'
p292
I1
sS'rewritten'
p293
I1
sS'Monday'
p294
I2
sS'start'
p295
I1
sS'Funds'
p296
I1
sS'Autos'
p297
I1
sS'Heathers'
p298
I1
sS'2'
p299
I1
sS'Suited'
p300
I1
sS'Pelosi'
p301
I1
sS'Rep'
p302
I1
sS'enforcement'
p303
I1
sS'Search'
p304
I1
sS'Schedule'
p305
I1
sS'THWARTED'
p306
I1
sS'allegedly'
p307
I1
sS'Levin'
p308
I1
sS'StoryServer'
p309
I4
sS'broadcast'
p310
I1
sS'cereal'
p311
I1
sS'immigrant'
p312
I1
sS'History'
p313
I1
sS'Features'
p314
I1
sS'Shepard'
p315
I1
sS'Cyber'
p316
I2
sS'See'
p317
I1
sS'SHOCKING'
p318
I1
sS'Obama'
p319
I1
sS'mediabuzz'
p320
I1
sS'Fails'
p321
I1
sS'nutrition'
p322
I1
sS'Electoral'
p323
I1
sS'DC'
p324
I1
sS'Other'
p325
I1
sS'Gov'
p326
I1
sS'Justin'
p327
I1
sS'Food'
p328
I2
sS'De'
p329
I1
sS'officers'
p330
I1
sS'Photos'
p331
I1
sS'Historic'
p332
I1
sS'useless'
p333
I1
sS'bus'
p334
I1
sS'Leslie'
p335
I1
sS'hurling'
p336
I1
sS'Bronco'
p337
I1
sS'With'
p338
I1
sS'Hall'
p339
I1
sS'gravy'
p340
I1
sS'Healthy'
p341
I1
sS'GOD'
p342
I1
sS'Blogs'
p343
I1
sS'reindeer'
p344
I2
sS'Kentucky'
p345
I1
sS'demise'
p346
I1
sS'Politics'
p347
I2
sS'spacesuit'
p348
I2
sS'The'
p349
I13
sS'Alt'
p350
I1
sS'Deals'
p351
I1
sS'Google'
p352
I2
sS'Whats'
p353
I1
sS'request'
p354
I1
sS'dog'
p355
I1
sS'Cost'
p356
I1
sS'ADVERTISEMENT'
p357
I3
sS'hindrance'
p358
I1
sS'Earth'
p359
I1
sS'manspreading'
p360
I1
sS'Trending'
p361
I3
sS'shot'
p362
I2
sS'inspire'
p363
I1
sS'Wed'
p364
I4
sS'Slager'
p365
I1
sS'Lilly'
p366
I1
sS'Keiths'
p367
I1
sS'Woman'
p368
I2
sS'Republicans'
p369
I1
sS'York'
p370
I3
sS'PICK'
p371
I1
sS'Tom'
p372
I1
sS'plate'
p373
I1
sS'Nikki'
p374
I1
sS'hit'
p375
I1
sS'Choices'
p376
I1
sS'SampP'
p377
I1
sS'Thanksgiving'
p378
I5
sS'sues'
p379
I2
sS'joins'
p380
I1
sS'Starnes'
p381
I1
sS'THE'
p382
I1
sS'Colorado'
p383
I1
sS'Doherty'
p384
I2
sS'glory'
p385
I1
sS'Carlson'
p386
I1
sS'Washington'
p387
I2
sS'amputation'
p388
I2
sS'FoxNewscom'
p389
I1
sS'bad'
p390
I1
sS'worries'
p391
I1
sS'grad'
p392
I1
sS'secretary'
p393
I1
sS'Harsh'
p394
I1
sS'turkeys'
p395
I1
sS'mind'
p396
I1
sS'Fox'
p397
I24
sS'sex'
p398
I1
sS'accused'
p399
I1
sS'fail'
p400
I2
sS'Good'
p401
I2
sS'Gutfeld'
p402
I1
sS'3'
p403
I1
sS'VIDEO'
p404
I3
sS'Higher'
p405
I1
sS'Than'
p406
I1
sS'TRUMPS'
p407
I1
sS'Stories'
p408
I1
sS'Files'
p409
I1
sS'explosive'
p410
I1
sS'FOR'
p411
I2
sS'Be'
p412
I1
sS'scavengers'
p413
I1
sS'sold'
p414
I2
sS'preach'
p415
I1
sS'deliver'
p416
I1
sS'outfit'
p417
I1
sS'Chevy'
p418
I1
sS'incident'
p419
I2
sS'awards'
p420
I1
sS'news'
p421
I1
sS'lawsuit'
p422
I3
sS'Advertise'
p423
I1
sS'AND'
p424
I1
sS'climate'
p425
I4
sS'empathy'
p426
I1
sS'license'
p427
I1
sS'uncertainty'
p428
I1
sS'blasts'
p429
I1
sS'WWII'
p430
I2
sS'vanish'
p431
I1
sS'Todd'
p432
I1
sS'Domino\xe2\x80\x99s'
p433
I1
sS'Headlines'
p434
I1
sS'085824'
p435
I1
sS'86yearold'
p436
I1
sS'1692016'
p437
I1
sS'tone'
p438
I1
sS'Geraldo'
p439
I1
sS'cancer'
p440
I1
sS'Travel'
p441
I4
sS'Alzheimers'
p442
I1
sS'improper'
p443
I1
sS'slain'
p444
I1
sS'Music'
p445
I1
sS'ROBBERY'
p446
I1
sS'manhood'
p447
I1
sS'War'
p448
I1
sS'Hernandez'
p449
I1
sS'Get'
p450
I1
sS'Students'
p451
I1
sS'Vignette'
p452
I4
sS'teacher'
p453
I1
sS'murdersuicide'
p454
I1
sS'Updates'
p455
I1
sS'Sheriffs'
p456
I1
sS'Captioning'
p457
I1
sS'TROUBLED'
p458
I1
sS'500'
p459
I1
sS'Gingrich'
p460
I2
sS'fire'
p461
I1
sS'suppress'
p462
I2
sS'offered'
p463
I1
sS'Weather'
p464
I1
sS'recalled'
p465
I2
sS'PANIC'
p466
I1
sS'former'
p467
I1
sS'sharpshooters'
p468
I1
sS'Secretary'
p469
I1
sS'pact'
p470
I1
sS'Heinz'
p471
I1
sS'Dont'
p472
I1
sS'UFO'
p473
I1
sS'censors'
p474
I1
sS'premature'
p475
I1
sS'air'
p476
I1
sS'cast'
p477
I1
sS'near'
p478
I2
sS'Persian'
p479
I2
sS'College'
p480
I2
sS'Oneonone'
p481
I1
sS'wild'
p482
I1
sS'Follow'
p483
I1
sS'launched'
p484
I2
sS'City'
p485
I2
sS'punches'
p486
I1
sS'Dancing'
p487
I1
sS'Better'
p488
I1
sS'Tim'
p489
I1
sS'vs'
p490
I1
sS'DJIA'
p491
I1
sS'STARNES'
p492
I1
sS'You'
p493
I1
sS'Rivers'
p494
I1
sS'Teen'
p495
I1
sS'Garden'
p496
I1
sS'rooting'
p497
I1
sS'perform'
p498
I1
sS'Regional'
p499
I1
sS'Nation'
p500
I1
sS'babies'
p501
I1
sS'Carol'
p502
I1
sS'independent'
p503
I1
sS'About'
p504
I1
sS'HOPING'
p505
I1
sS'governors'
p506
I1
sS'liberals'
p507
I1
sS'driver'
p508
I1
sS'alert'
p509
I1
sS'Greg'
p510
I1
sS'IM'
p511
I1
sS'student'
p512
I1
sS'IN'
p513
I1
sS'changing'
p514
I2
sS'Morning'
p515
I1
sS'Outnumbered'
p516
I1
sS'Detailed'
p517
I1
sS'CARLSON'
p518
I1
sS'Im'
p519
I1
sS'Have'
p520
I1
sS'entry'
p521
I1
sS'Tools'
p522
I1
sS'charged'
p523
I1
sS'CLASSROOM'
p524
I1
sS'ambassador'
p525
I1
sS'OVER'
p526
I1
sS'Sunday'
p527
I2
sS'wrecks'
p528
I1
sS'Native'
p529
I1
sS'Markets'
p530
I1
sS'Laurie'
p531
I1
sS'adding'
p532
I1
sS'Friday'
p533
I5
sS'killed'
p534
I2
sS'add'
p535
I1
sS'4'
p536
I1
sS'Dorsey'
p537
I2
sS'Recount'
p538
I1
sS'News'
p539
I26
sS'Debt'
p540
I1
sS'085956'
p541
I1
sS'On'
p542
I2
sS'complaint'
p543
I1
sS'government'
p544
I1
sS'online'
p545
I2
sS'TSA'
p546
I1
sS'Drug'
p547
I1
sS'Air'
p548
I3
sS'Micro'
p549
I1
sS'TODD'
p550
I1
sS'govt'
p551
I1
sS'amp'
p552
I9
sS'SELFDEALING'
p553
I1
sS'pies'
p554
I1
sS'plundering'
p555
I1
sS'Law'
p556
I2
sS'Trump'
p557
I15
sS'renames'
p558
I2
sS'Show'
p559
I1
sS'nude'
p560
I1
sS'hunt'
p561
I1
sS'50'
p562
I5
sS'officer'
p563
I4
sS'Pentagon'
p564
I1
sS'Newsletters'
p565
I2
sS'dean'
p566
I1
sS'Closed'
p567
I1
sS'Gulf'
p568
I2
sS'doll'
p569
I2
sS'Chevrolet'
p570
I1
sS'Cavuto'
p571
I1
sS'HQ'
p572
I1
sS'thief'
p573
I1
sS'eyeing'
p574
I1
sS'trends'
p575
I1
sS'New'
p576
I6
sS'FIND'
p577
I1
sS'Channel'
p578
I1
sS'Lee'
p579
I1
sS'Downloads'
p580
I1
sS'Reporting'
p581
I2
sS'RESEARCH'
p582
I1
sS'Dominos'
p583
I1
sS'Facebook'
p584
I4
sS'Bieber'
p585
I2
sS'LLC'
p586
I1
sS'chains'
p587
I1
sS'overrated'
p588
I1
sS'Gray'
p589
I1
sS'School'
p590
I1
sS'Lifestyle'
p591
I2
sS'Look'
p592
I1
sS'Jeanine'
p593
I1
sS'STUDENTS'
p594
I1
sS'Futures'
p595
I1
sS'Jewel'
p596
I1
sS'blooper'
p597
I1
sS'pressure'
p598
I1
sS'paid'
p599
I1
sS'Outdoors'
p600
I2
sS'refuses'
p601
I1
sS'Property'
p602
I1
sS'Popeyes'
p603
I1
sS'KILLED'
p604
I2
sS'First'
p605
I3
sS'Madison'
p606
I1
sS'Square'
p607
I1
sS'getting'
p608
I1
sS'attacks'
p609
I1
sS'citizens'
p610
I1
sS'truck'
p611
I1
sS'US'
p612
I8
sS'UN'
p613
I1
sS'beans'
p614
I1
sS'Japan'
p615
I1
sS'Tiffany'
p616
I1
sS'Best'
p617
I1
sS'software'
p618
I2
sS'Hannity'
p619
I1
sS'090943'
p620
I1
sS'Story'
p621
I1
sS'Alerts'
p622
I1
sS'Shares'
p623
I1
sS'Insider'
p624
I1
sS'Joan'
p625
I1
sS'heated'
p626
I1
sS'watchdog'
p627
I2
sS'Latino'
p628
I1
sS'Store'
p629
I1
sS'Network'
p630
I1
sS'Home'
p631
I2
sS'NJ'
p632
I1
sS'ISIS'
p633
I2
sS'NO'
p634
I1
sS'Entertainment'
p635
I4
sS'alleged'
p636
I2
sS'Lists'
p637
I1
sS'fight'
p638
I2
sS'NY'
p639
I1
sS'CONCERNS'
p640
I1
sS'stars'
p641
I1
sS'war'
p642
I1
sS'happy'
p643
I1
sS'files'
p644
I1
sS'head'
p645
I1
sS'funds'
p646
I1
sS'delayed'
p647
I1
sS'delivery'
p648
I1
sS'Lands'
p649
I1
sS'promote'
p650
I1
sS'Consumer'
p651
I2
sS'info'
p652
I1
sS'Gold'
p653
I2
sS'Jeff'
p654
I1
sS'dangerous'
p655
I1
sS'Twitter'
p656
I4
sS'BuzzFeed'
p657
I1
sS'Haley'
p658
I1
sS'devices'
p659
I1
sS'below'
p660
I1
sS'lays'
p661
I1
sS'Close'
p662
I2
sS'minutes'
p663
I1
sS'Special'
p664
I1
sS'ad'
p665
I1
sS'Space'
p666
I1
sS'Factor'
p667
I1
sS'topless'
p668
I1
sS'LinkedIn'
p669
I1
sS'How'
p670
I1
sS'replica'
p671
I1
sS'Digging'
p672
I1
sS'Memory'
p673
I1
sS'Niro'
p674
I1
sS'campus'
p675
I1
sS'BACKTRACKING'
p676
I1
sS'Real'
p677
I1
sS'Mayflower'
p678
I1
sS'TV'
p679
I2
sS'deadly'
p680
I1
sS'alerts'
p681
I1
sS'tip'
p682
I1
sS'abolish'
p683
I1
sS'5'
p684
I2
sS'Carolina'
p685
I1
sS'OReilly'
p686
I1
sS'Man'
p687
I1
sS'Loss'
p688
I1
sS'Great'
p689
I2
sS'Want'
p690
I1
sS'reportedly'
p691
I2
sS'Netflix'
p692
I1
sS'includes'
p693
I1
sS'pizzas'
p694
I1
sS'Ad'
p695
I1
sS'wife'
p696
I1
sS'space'
p697
I2
sS'Shannen'
p698
I1
sS'push'
p699
I1
sS'baked'
p700
I1
sS'restored'
p701
I1
s.