(dp0
S'worldrecord'
p1
I1
sS'LIFE'
p2
I1
sS'hats'
p3
I1
sS'DISCRIMINATORY'
p4
I1
sS'focus'
p5
I1
sS'Privacy'
p6
I1
sS'protest'
p7
I1
sS'hating'
p8
I1
sS'Department'
p9
I2
sS'settlement'
p10
I1
sS'children'
p11
I1
sS'issues'
p12
I1
sS'Foundation'
p13
I2
sS'Shillue'
p14
I1
sS'Business'
p15
I3
sS'mosque'
p16
I1
sS'FIGHTING'
p17
I1
sS'Kellogg'
p18
I1
sS'Chefs\xe2\x80\x99'
p19
I1
sS'stable'
p20
I1
sS'terror'
p21
I1
sS'Nov'
p22
I3
sS'Now'
p23
I3
sS'sent'
p24
I1
sS'Feed'
p25
I2
sS'string'
p26
I1
sS'choice'
p27
I1
sS'vera'
p28
I2
sS'Tech'
p29
I2
sS'fall'
p30
I1
sS'practicing'
p31
I1
sS'Obamas'
p32
I1
sS'Where'
p33
I1
sS'Email'
p34
I1
sS'school'
p35
I2
sS'transmission'
p36
I1
sS'Sensitivity'
p37
I1
sS'shock'
p38
I1
sS'posts'
p39
I2
sS'accidentally'
p40
I2
sS'LAB'
p41
I1
sS'deals'
p42
I2
sS'Nasdaq'
p43
I1
sS'Patriots'
p44
I1
sS'Go'
p45
I3
sS'Breakfast'
p46
I1
sS'astronaut'
p47
I1
sS'Into'
p48
I1
sS'clothes'
p49
I1
sS'UFC'
p50
I1
sS'warns'
p51
I2
sS'Actually'
p52
I1
sS'talks'
p53
I1
sS'cost'
p54
I1
sS'run'
p55
I1
sS'GUY'
p56
I1
sS'Sections'
p57
I1
sS'Red'
p58
I1
sS'Tonight'
p59
I1
sS'sue'
p60
I1
sS'redistributed'
p61
I1
sS'Merkel'
p62
I1
sS'10G'
p63
I1
sS'shares'
p64
I1
sS'Ford'
p65
I1
sS'Tucker'
p66
I1
sS'300'
p67
I1
sS'Cultural'
p68
I1
sS'Govt'
p69
I1
sS'64176'
p70
I1
sS'falling'
p71
I1
sS'America'
p72
I1
sS'explosion'
p73
I1
sS'Happening'
p74
I1
sS'malaria'
p75
I1
sS'reporter'
p76
I1
sS'Freedom'
p77
I1
sS'funeral'
p78
I1
sS'Contact'
p79
I1
sS'Us'
p80
I2
sS'Faces'
p81
I1
sS'100'
p82
I1
sS'appears'
p83
I1
sS'change'
p84
I3
sS'extreme'
p85
I1
sS'buck'
p86
I1
sS'battling'
p87
I1
sS'settles'
p88
I1
sS'pics'
p89
I1
sS'20foot'
p90
I1
sS'published'
p91
I1
sS'Dear'
p92
I1
sS'military'
p93
I1
sS'murdering'
p94
I1
sS'Inc'
p95
I1
sS'Technology'
p96
I2
sS'Rivera'
p97
I1
sS'patents'
p98
I1
sS'shootings'
p99
I1
sS'Legends'
p100
I1
sS'family'
p101
I2
sS'Doctor'
p102
I1
sS'Justice'
p103
I2
sS'Watch'
p104
I3
sS'Top'
p105
I1
sS'Relations'
p106
I1
sS'TUCKER'
p107
I1
sS'patience'
p108
I1
sS'Health'
p109
I4
sS'Slideshows'
p110
I1
sS'toys'
p111
I2
sS'reserved'
p112
I1
sS'market'
p113
I1
sS'eye'
p114
I1
sS'sake'
p115
I1
sS'illegal'
p116
I2
sS'resigns'
p117
I1
sS'lsquovanishrsquo'
p118
I1
sS'Playing'
p119
I1
sS'Russian'
p120
I1
sS'Bennetts'
p121
I1
sS'coffins'
p122
I1
sS'fly'
p123
I1
sS'Rule'
p124
I1
sS'Americas'
p125
I2
sS'Editorial'
p126
I1
sS'Latest'
p127
I2
sS'town'
p128
I1
sS'join'
p129
I2
sS'Can'
p130
I1
sS'100330'
p131
I1
sS'recall'
p132
I1
sS'Tiffany'
p133
I1
sS'cat'
p134
I1
sS'Down'
p135
I1
sS'Lies'
p136
I1
sS'Kimmel'
p137
I2
sS'Video'
p138
I3
sS'learn'
p139
I1
sS'SC'
p140
I1
sS'experts'
p141
I2
sS'drops'
p142
I1
sS'grenade'
p143
I1
sS'Nicole'
p144
I1
sS'CHARITY'
p145
I1
sS'scam'
p146
I1
sS'Media'
p147
I1
sS'newsletters'
p148
I1
sS'bus'
p149
I1
sS'Policy'
p150
I2
sS'counseling'
p151
I1
sS'Australian'
p152
I1
sS'Calif'
p153
I1
sS'rape'
p154
I1
sS'absolute'
p155
I2
sS'HIS'
p156
I1
sS'Terms'
p157
I1
sS'Deeper'
p158
I1
sS'travel'
p159
I3
sS'Drink'
p160
I2
sS'1'
p161
I1
sS'carrier'
p162
I2
sS'Jack'
p163
I2
sS'speeding'
p164
I1
sS'Archaeologists'
p165
I1
sS'Americans'
p166
I1
sS'Shows'
p167
I1
sS'Friends'
p168
I3
sS'Why'
p169
I2
sS'A'
p170
I2
sS'Five'
p171
I1
sS'nontypical'
p172
I1
sS'iPhones'
p173
I1
sS'British'
p174
I1
sS'Will'
p175
I1
sS'Apps'
p176
I1
sS'Wouldbe'
p177
I1
sS'Yale'
p178
I1
sS'mocks'
p179
I2
sS'data'
p180
I1
sS'View'
p181
I5
sS'All'
p182
I2
sS'Outdoor'
p183
I1
sS'Kelly'
p184
I1
sS'Apple'
p185
I3
sS'ZR2'
p186
I1
sS'Romney'
p187
I1
sS'Rosie'
p188
I1
sS'Tennessee'
p189
I2
sS'Radio'
p190
I2
sS'knits'
p191
I1
sS'File'
p192
I1
sS'Politics'
p193
I2
sS'addiction'
p194
I1
sS'Katie'
p195
I1
sS'Journal'
p196
I1
sS'talk'
p197
I1
sS'RSS'
p198
I1
sS'What'
p199
I1
sS'breaking'
p200
I1
sS'Eye'
p201
I1
sS'developed'
p202
I2
sS'Breaking'
p203
I1
sS'Smith'
p204
I1
sS'Story'
p205
I1
sS'trade'
p206
I1
sS'Airbnb'
p207
I1
sS'report'
p208
I1
sS'Scholarships'
p209
I1
sS'nbsp'
p210
I20
sS'Robertson'
p211
I1
sS'blocked'
p212
I1
sS'foldable'
p213
I1
sS'Full'
p214
I1
sS'police'
p215
I1
sS'23'
p216
I3
sS'chosen'
p217
I1
sS'fined'
p218
I1
sS'sorties'
p219
I1
sS'pct'
p220
I1
sS'writing'
p221
I1
sS'platform'
p222
I2
sS'offers'
p223
I1
sS'annual'
p224
I1
sS'Judge'
p225
I2
sS'World'
p226
I3
sS'2016'
p227
I3
sS'fines'
p228
I1
sS'Kids'
p229
I1
sS'crash'
p230
I1
sS'Dominican'
p231
I1
sS'Mobile'
p232
I1
sS'material'
p233
I1
sS'Michael'
p234
I3
sS'Choices'
p235
I1
sS'Youth'
p236
I1
sS'WAITING'
p237
I1
sS'FOX'
p238
I1
sS'iPhone'
p239
I2
sS'TPP'
p240
I1
sS'front'
p241
I1
sS'day'
p242
I1
sS'Weekend'
p243
I1
sS'arrested'
p244
I1
sS'identified'
p245
I1
sS'Lakosky'
p246
I1
sS'stopped'
p247
I1
sS'victory'
p248
I1
sS'found'
p249
I2
sS'Use'
p250
I1
sS'Potential'
p251
I1
sS'Veronicas'
p252
I2
sS'Stars'
p253
I1
sS'ROOTING'
p254
I1
sS'list'
p255
I1
sS'cultivated'
p256
I1
sS'Science'
p257
I4
sS'Sports'
p258
I1
sS'HIRING'
p259
I1
sS'Live'
p260
I1
sS'Peoples'
p261
I1
sS'avoided'
p262
I1
sS'More'
p263
I1
sS'living'
p264
I1
sS'Plunge'
p265
I1
sS'Goodwin'
p266
I2
sS'3rd'
p267
I1
sS'plan'
p268
I1
sS'CEO'
p269
I2
sS'Michigan'
p270
I1
sS'China'
p271
I2
sS'Report'
p272
I2
sS'Town'
p273
I1
sS'lawmaker'
p274
I1
sS'University'
p275
I1
sS'free'
p276
I1
sS'20'
p277
I1
sS'Planet'
p278
I1
sS'worries'
p279
I1
sS'Planes'
p280
I2
sS'Opinion'
p281
I4
sS'alert'
p282
I1
sS'training'
p283
I1
sS'Conversations'
p284
I1
sS'Videos'
p285
I1
sS'Nature'
p286
I1
sS'correctness'
p287
I1
sS'days'
p288
I2
sS'Continue'
p289
I10
sS'view'
p290
I1
sS'Presidentelect'
p291
I2
sS'Bridges'
p292
I2
sS'Lama'
p293
I1
sS'Personalities'
p294
I1
sS'Newsroom'
p295
I2
sS'Dalai'
p296
I1
sS'Forecast'
p297
I1
sS'Wild'
p298
I1
sS'Going'
p299
I1
sS'Black'
p300
I4
sS'suspended'
p301
I2
sS'vote'
p302
I1
sS'message'
p303
I1
sS'Careers'
p304
I1
sS'Separated'
p305
I1
sS'city'
p306
I1
sS'rewritten'
p307
I1
sS'Monday'
p308
I2
sS'start'
p309
I1
sS'Funds'
p310
I1
sS'breed'
p311
I1
sS'renames'
p312
I1
sS'2'
p313
I2
sS'listed'
p314
I1
sS'enforcement'
p315
I1
sS'Search'
p316
I1
sS'Rare'
p317
I1
sS'THWARTED'
p318
I1
sS'allegedly'
p319
I1
sS'Levin'
p320
I1
sS'This'
p321
I1
sS'StoryServer'
p322
I3
sS'broadcast'
p323
I1
sS'cops'
p324
I1
sS'cereal'
p325
I1
sS'TSA'
p326
I1
sS'History'
p327
I1
sS'Features'
p328
I1
sS'Shepard'
p329
I1
sS'Cyber'
p330
I2
sS'See'
p331
I1
sS'SHOCKING'
p332
I1
sS'Obama'
p333
I1
sS'mediabuzz'
p334
I1
sS'Fails'
p335
I1
sS'nutrition'
p336
I1
sS'alongside'
p337
I1
sS'mind'
p338
I1
sS'DC'
p339
I1
sS'Jury'
p340
I1
sS'125000'
p341
I1
sS'Gov'
p342
I1
sS'Food'
p343
I2
sS'De'
p344
I1
sS'officers'
p345
I1
sS'Photos'
p346
I1
sS'Weather'
p347
I1
sS'useless'
p348
I1
sS'Half'
p349
I1
sS'Leslie'
p350
I1
sS'hurling'
p351
I1
sS'Bronco'
p352
I1
sS'With'
p353
I1
sS'gravy'
p354
I1
sS'Healthy'
p355
I1
sS'price'
p356
I1
sS'reindeer'
p357
I2
sS'paid'
p358
I1
sS'demise'
p359
I1
sS'spacesuit'
p360
I1
sS'The'
p361
I12
sS'Alt'
p362
I1
sS'4'
p363
I1
sS'Deals'
p364
I1
sS'Google'
p365
I2
sS'Whats'
p366
I1
sS'dog'
p367
I1
sS'Donald'
p368
I1
sS'Cost'
p369
I1
sS'ADVERTISEMENT'
p370
I3
sS'Earth'
p371
I1
sS'manspreading'
p372
I1
sS'rocker'
p373
I1
sS'Trending'
p374
I3
sS'shot'
p375
I2
sS'inspire'
p376
I1
sS'Wed'
p377
I3
sS'Lilly'
p378
I1
sS'Keiths'
p379
I1
sS'Woman'
p380
I1
sS'Wonderboy'
p381
I1
sS'Republicans'
p382
I1
sS'Mexicos'
p383
I1
sS'York'
p384
I3
sS'PICK'
p385
I1
sS'Tom'
p386
I1
sS'GDP'
p387
I1
sS'Nikki'
p388
I2
sS'Pavlich'
p389
I1
sS'SampP'
p390
I1
sS'Thanksgiving'
p391
I8
sS'sues'
p392
I1
sS'Popular'
p393
I1
sS'Starnes'
p394
I1
sS'THE'
p395
I1
sS'Colorado'
p396
I1
sS'Doherty'
p397
I1
sS'gels'
p398
I1
sS'Carlson'
p399
I1
sS'Washington'
p400
I1
sS'FoxNewscom'
p401
I1
sS'bad'
p402
I1
sS'\xe2\x80\x98Sexiest'
p403
I1
sS'contain'
p404
I1
sS'ban'
p405
I1
sS'grad'
p406
I1
sS'secretary'
p407
I1
sS'qtr'
p408
I1
sS'turkeys'
p409
I1
sS'FAQ'
p410
I1
sS'Fox'
p411
I24
sS'immigrant'
p412
I1
sS'culture'
p413
I1
sS'accused'
p414
I1
sS'fail'
p415
I2
sS'Good'
p416
I1
sS'Gutfeld'
p417
I1
sS'PC'
p418
I1
sS'3'
p419
I2
sS'VIDEO'
p420
I3
sS'TRUMPS'
p421
I1
sS'Stories'
p422
I1
sS'explosive'
p423
I1
sS'bargains'
p424
I1
sS'FOR'
p425
I2
sS'Be'
p426
I1
sS'scavengers'
p427
I1
sS'sold'
p428
I2
sS'preach'
p429
I1
sS'deliver'
p430
I1
sS'outfit'
p431
I1
sS'Chevy'
p432
I1
sS'incident'
p433
I1
sS'death'
p434
I1
sS'awards'
p435
I1
sS'news'
p436
I1
sS'lawsuit'
p437
I2
sS'Advertise'
p438
I1
sS'AND'
p439
I1
sS'patented'
p440
I1
sS'climate'
p441
I3
sS'empathy'
p442
I1
sS'aloe'
p443
I2
sS'Schedule'
p444
I1
sS'blasts'
p445
I1
sS'WWII'
p446
I2
sS'vanish'
p447
I1
sS'trumps'
p448
I1
sS'Todd'
p449
I1
sS'Navy'
p450
I1
sS'Domino\xe2\x80\x99s'
p451
I1
sS'Headlines'
p452
I1
sS'86yearold'
p453
I1
sS'1692016'
p454
I1
sS'tone'
p455
I1
sS'Geraldo'
p456
I1
sS'cancer'
p457
I1
sS'Travel'
p458
I4
sS'Alzheimers'
p459
I2
sS'walk'
p460
I1
sS'improper'
p461
I1
sS'slain'
p462
I1
sS'ROBBERY'
p463
I1
sS'manhood'
p464
I1
sS'Willie'
p465
I1
sS'War'
p466
I1
sS'turkey'
p467
I2
sS'copycat'
p468
I1
sS'Blocks'
p469
I1
sS'Get'
p470
I1
sS'Students'
p471
I1
sS'political'
p472
I1
sS'Vignette'
p473
I3
sS'teacher'
p474
I1
sS'murdersuicide'
p475
I1
sS'Updates'
p476
I1
sS'Sheriffs'
p477
I1
sS'Captioning'
p478
I1
sS'TROUBLED'
p479
I1
sS'Pilgrims'
p480
I1
sS'500'
p481
I1
sS'Gingrich'
p482
I1
sS'fire'
p483
I1
sS'suppress'
p484
I2
sS'offered'
p485
I1
sS'Philadelphia'
p486
I1
sS'recalled'
p487
I2
sS'overdose'
p488
I1
sS'PANIC'
p489
I1
sS'former'
p490
I1
sS'sharpshooters'
p491
I1
sS'pact'
p492
I1
sS'Heinz'
p493
I1
sS'Dont'
p494
I2
sS'UFO'
p495
I1
sS'censors'
p496
I1
sS'Give'
p497
I1
sS'premature'
p498
I1
sS'near'
p499
I2
sS'Persian'
p500
I2
sS'College'
p501
I1
sS'Oneonone'
p502
I1
sS'wild'
p503
I1
sS'Follow'
p504
I1
sS'launched'
p505
I2
sS'City'
p506
I1
sS'Slow'
p507
I1
sS'Digging'
p508
I1
sS'Memory'
p509
I1
sS'Overtime'
p510
I1
sS'DJIA'
p511
I1
sS'You'
p512
I1
sS'Rivers'
p513
I1
sS'rsaquo'
p514
I18
sS'Teen'
p515
I2
sS'Loss'
p516
I1
sS'Around'
p517
I1
sS'rooting'
p518
I1
sS'perform'
p519
I1
sS'Regional'
p520
I1
sS'Nation'
p521
I1
sS'babies'
p522
I1
sS'President'
p523
I1
sS'Carol'
p524
I1
sS'grows'
p525
I1
sS'week'
p526
I1
sS'independent'
p527
I1
sS'About'
p528
I1
sS'HOPING'
p529
I1
sS'093923'
p530
I1
sS'I'
p531
I2
sS'liberals'
p532
I1
sS'driver'
p533
I1
sS'holidays'
p534
I1
sS'Greg'
p535
I1
sS'student'
p536
I1
sS'IN'
p537
I1
sS'changing'
p538
I2
sS'Morning'
p539
I1
sS'tradition'
p540
I1
sS'Outnumbered'
p541
I1
sS'Detailed'
p542
I1
sS'CARLSON'
p543
I1
sS'sinkhole'
p544
I1
sS'Im'
p545
I1
sS'Have'
p546
I1
sS'entry'
p547
I1
sS'Tools'
p548
I1
sS'prevention'
p549
I1
sS'charged'
p550
I1
sS'CLASSROOM'
p551
I1
sS'ambassador'
p552
I1
sS'OVER'
p553
I1
sS'Sunday'
p554
I2
sS'wrecks'
p555
I1
sS'victim'
p556
I1
sS'Native'
p557
I1
sS'Include'
p558
I1
sS'Markets'
p559
I1
sS'Files'
p560
I1
sS'adding'
p561
I1
sS'cut'
p562
I1
sS'Friday'
p563
I5
sS'killed'
p564
I2
sS'add'
p565
I1
sS'treatment'
p566
I1
sS'Dorsey'
p567
I2
sS'News'
p568
I26
sS'Debt'
p569
I1
sS'On'
p570
I2
sS'complaint'
p571
I1
sS'online'
p572
I2
sS'Drug'
p573
I1
sS'Air'
p574
I3
sS'govt'
p575
I1
sS'amp'
p576
I9
sS'SELFDEALING'
p577
I1
sS'pies'
p578
I1
sS'plundering'
p579
I1
sS'Trump'
p580
I16
sS'amputation'
p581
I1
sS'Show'
p582
I1
sS'nude'
p583
I1
sS'hunt'
p584
I1
sS'50'
p585
I4
sS'serves'
p586
I1
sS'officer'
p587
I3
sS'Fear'
p588
I1
sS'Pentagon'
p589
I1
sS'Newsletters'
p590
I2
sS'dean'
p591
I1
sS'Closed'
p592
I1
sS'Gulf'
p593
I2
sS'Entertainment'
p594
I4
sS'sends'
p595
I1
sS'Chevrolet'
p596
I1
sS'Cavuto'
p597
I1
sS'HQ'
p598
I1
sS'thief'
p599
I1
sS'eyeing'
p600
I1
sS'trends'
p601
I1
sS'New'
p602
I6
sS'FIND'
p603
I1
sS'Channel'
p604
I1
sS'Conor'
p605
I1
sS'Downloads'
p606
I1
sS'Reporting'
p607
I2
sS'RESEARCH'
p608
I1
sS'Dominos'
p609
I1
sS'Facebook'
p610
I5
sS'LLC'
p611
I1
sS'chains'
p612
I1
sS'Blogs'
p613
I1
sS'Gray'
p614
I1
sS'School'
p615
I1
sS'Lifestyle'
p616
I2
sS'Look'
p617
I1
sS'Jeanine'
p618
I1
sS'STUDENTS'
p619
I1
sS'Futures'
p620
I1
sS'Jewel'
p621
I1
sS'blooper'
p622
I1
sS'pressure'
p623
I1
sS'Reports'
p624
I1
sS'Outdoors'
p625
I2
sS'refuses'
p626
I1
sS'Property'
p627
I1
sS'Popeyes'
p628
I1
sS'KILLED'
p629
I2
sS'First'
p630
I3
sS'Jimmy'
p631
I1
sS'getting'
p632
I1
sS'attacks'
p633
I2
sS'citizens'
p634
I1
sS'truck'
p635
I1
sS'US'
p636
I9
sS'dinner'
p637
I1
sS'UN'
p638
I2
sS'beans'
p639
I1
sS'Podcasts'
p640
I1
sS'Japan'
p641
I1
sS'Best'
p642
I1
sS'software'
p643
I2
sS'Hannity'
p644
I1
sS'seeing'
p645
I1
sS'Brexit'
p646
I1
sS'letters'
p647
I1
sS'Alerts'
p648
I1
sS'Shares'
p649
I1
sS'Insider'
p650
I1
sS'Joan'
p651
I1
sS'heated'
p652
I1
sS'watchdog'
p653
I2
sS'Latino'
p654
I1
sS'Store'
p655
I1
sS'Network'
p656
I1
sS'Home'
p657
I2
sS'NJ'
p658
I1
sS'ISIS'
p659
I2
sS'NO'
p660
I1
sS'doll'
p661
I1
sS'alleged'
p662
I1
sS'Lists'
p663
I1
sS'fight'
p664
I2
sS'NY'
p665
I1
sS'095510'
p666
I1
sS'CONCERNS'
p667
I1
sS'stars'
p668
I1
sS'happy'
p669
I1
sS'files'
p670
I1
sS'survives'
p671
I1
sS'head'
p672
I1
sS'funds'
p673
I1
sS'delayed'
p674
I1
sS'delivery'
p675
I1
sS'McGregor'
p676
I1
sS'promote'
p677
I1
sS'Consumer'
p678
I2
sS'info'
p679
I1
sS'Gold'
p680
I1
sS'Jeff'
p681
I1
sS'dangerous'
p682
I1
sS'Twitter'
p683
I4
sS'BuzzFeed'
p684
I1
sS'Haley'
p685
I2
sS'devices'
p686
I1
sS'clips'
p687
I1
sS'below'
p688
I1
sS'lays'
p689
I1
sS'Close'
p690
I2
sS'minutes'
p691
I1
sS'Special'
p692
I1
sS'ad'
p693
I1
sS'Space'
p694
I1
sS'Factor'
p695
I1
sS'topless'
p696
I2
sS'LinkedIn'
p697
I1
sS'How'
p698
I1
sS'replica'
p699
I1
sS'Doors'
p700
I1
sS'home'
p701
I1
sS'politics'
p702
I1
sS'Niro'
p703
I1
sS'campus'
p704
I1
sS'BACKTRACKING'
p705
I1
sS'Real'
p706
I1
sS'Families'
p707
I1
sS'Mayflower'
p708
I1
sS'TV'
p709
I1
sS'deadly'
p710
I1
sS'alerts'
p711
I1
sS'tip'
p712
I1
sS'shipwrecks'
p713
I1
sS'5'
p714
I2
sS'Law'
p715
I2
sS'OReilly'
p716
I1
sS'Man'
p717
I1
sS'convicts'
p718
I1
sS'Great'
p719
I2
sS'Want'
p720
I1
sS'reportedly'
p721
I2
sS'Netflix'
p722
I1
sS'skit'
p723
I1
sS'includes'
p724
I1
sS'chance'
p725
I1
sS'pizzas'
p726
I1
sS'Lee'
p727
I1
sS'rights'
p728
I1
sS'fighter'
p729
I1
sS'Ad'
p730
I1
sS'wife'
p731
I1
sS'space'
p732
I1
sS'baked'
p733
I1
sS'original'
p734
I1
sS'restored'
p735
I1
s.